Certificate:
    Data:
        Version: 1 (0x0)
        Serial Number: 1048577 (0x100001)
    Signature Algorithm: md5WithRSAEncryption
        Issuer: O=SOMECOMPANY, OU=somedepartmentdevision/emailAddress=some@email.com, L=citydistrict, ST=someProvince, C=CA, CN=MYCOMMONNAME
        Validity
            Not Before: Mar 20 21:55:47 2014 GMT
            Not After : Mar 20 21:55:47 2015 GMT
        Subject: C=CA, ST=someProvince, O=SOMECOMPANY, OU=as, CN=a
        Subject Public Key Info:
            Public Key Algorithm: rsaEncryption
                Public-Key: (1024 bit)
                Modulus:
                    00:c2:f1:2f:a8:3d:95:c9:f7:63:bb:27:e1:a0:69:
                    12:53:84:6a:64:cd:6c:54:92:e8:16:b3:7b:18:64:
                    18:58:a4:92:c5:04:bf:f8:de:e8:c2:97:87:e3:9d:
                    65:58:6b:80:bd:18:15:12:8c:4d:3f:8b:bb:07:9e:
                    2c:e0:60:75:ce:96:e7:84:75:48:29:89:9b:f1:2b:
                    21:7b:a0:5c:89:da:fd:6d:0b:41:ae:fe:43:13:f8:
                    81:14:2f:e9:13:74:19:e3:c4:46:d8:f3:43:48:3f:
                    82:f0:39:a4:1d:88:d1:b3:34:26:b1:9d:c2:4a:73:
                    44:76:be:9a:c4:b2:5c:6c:11
                Exponent: 65537 (0x10001)
    Signature Algorithm: md5WithRSAEncryption
         3c:5d:9c:e9:3d:50:07:9b:06:d5:99:8c:c3:3d:42:43:bc:49:
         cc:3a:6a:e3:34:30:12:22:ab:34:f5:b2:9e:e2:36:ec:9c:83:
         58:85:88:dc:b1:32:6b:f1:9a:89:86:8f:47:9f:db:91:9d:7c:
         f7:e3:89:e0:8f:61:3e:dd:41:f6:cb:8e:db:f4:2a:4a:d5:95:
         43:e4:ab:a4:d4:00:2c:92:13:19:1b:83:42:24:bf:97:01:08:
         94:73:15:27:80:e9:96:e2:3c:ce:84:3b:51:35:ad:ed:d3:89:
         e1:36:55:b3:2a:24:3c:fe:29:4e:3f:52:e5:91:56:6b:75:6e:
         52:2a
-----BEGIN CERTIFICATE-----
MIICbTCCAdYCAxAAATANBgkqhkiG9w0BAQQFADCBqDEUMBIGA1UEChMLU09NRUNP
TVBBTlkxHzAdBgNVBAsTFnNvbWVkZXBhcnRtZW50ZGV2aXNpb24xHTAbBgkqhkiG
9w0BCQEWDnNvbWVAZW1haWwuY29tMRUwEwYDVQQHEwxjaXR5ZGlzdHJpY3QxFTAT
BgNVBAgTDHNvbWVQcm92aW5jZTELMAkGA1UEBhMCQ0ExFTATBgNVBAMTDE1ZQ09N
TU9OTkFNRTAeFw0xNDAzMjAyMTU1NDdaFw0xNTAzMjAyMTU1NDdaMFMxCzAJBgNV
BAYTAkNBMRUwEwYDVQQIEwxzb21lUHJvdmluY2UxFDASBgNVBAoTC1NPTUVDT01Q
QU5ZMQswCQYDVQQLEwJhczEKMAgGA1UEAxMBYTCBnzANBgkqhkiG9w0BAQEFAAOB
jQAwgYkCgYEAwvEvqD2VyfdjuyfhoGkSU4RqZM1sVJLoFrN7GGQYWKSSxQS/+N7o
wpeH451lWGuAvRgVEoxNP4u7B54s4GB1zpbnhHVIKYmb8Sshe6Bcidr9bQtBrv5D
E/iBFC/pE3QZ48RG2PNDSD+C8DmkHYjRszQmsZ3CSnNEdr6axLJcbBECAwEAATAN
BgkqhkiG9w0BAQQFAAOBgQA8XZzpPVAHmwbVmYzDPUJDvEnMOmrjNDASIqs09bKe
4jbsnINYhYjcsTJr8ZqJho9Hn9uRnXz344ngj2E+3UH2y47b9CpK1ZVD5Kuk1AAs
khMZG4NCJL+XAQiUcxUngOmW4jzOhDtRNa3t04nhNlWzKiQ8/ilOP1LlkVZrdW5S
Kg==
-----END CERTIFICATE-----
-----BEGIN PRIVATE KEY-----
MIICdgIBADANBgkqhkiG9w0BAQEFAASCAmAwggJcAgEAAoGBAMLxL6g9lcn3Y7sn
4aBpElOEamTNbFSS6BazexhkGFikksUEv/je6MKXh+OdZVhrgL0YFRKMTT+Luwee
LOBgdc6W54R1SCmJm/ErIXugXIna/W0LQa7+QxP4gRQv6RN0GePERtjzQ0g/gvA5
pB2I0bM0JrGdwkpzRHa+msSyXGwRAgMBAAECgYB41OKDV9j2nP8WTLwPn9EaL2N7
I9FYAs8U8x8DmVd16lyG/lC3xANmSmKSdUcSLWBY1QqKuqhPER9Ws3aBhYi+9HzR
pGTotUXU8cazFF+gl8zWl4MM3KtgfmHhVZfu4O+UBbdhtSKqzg+85tzfKUYXBwqD
1tCwEpGkASL3PslIIQJBAPbWXs1jzfxtkJ3MyamqzHvEYGwdosGT4v1lL5OIpLMV
CTWq39seHllsY6LJuTeKStMoNcFVUIf5878LIK8nkx0CQQDKLatNE6DY4J8lY0kE
E0aryH44J91NLnWSy7u6DReKl4u1+a/84V35VLs1LGfvFfkQ1eF6kJoolg54Jm6/
4paFAkEAy4/IiPuY4Wb+D5TWbmzjy+IMXr0l/xxV4wEydioHIYTknnS3vf2dq8N+
e75+V7ZdtLwBcNpJ2omgoVms76XkZQJAVcYiUsTtDJXfbuE8bPowlViuE+z1unTn
dKvyrPA4+Jdqsn2H6GVElS8ZbWm1fn13+WiEDJekj2t6IAdOHSJocQJATHr3r+Bb
cm7vWz5ADnUbV4r3PgHXkKPvgUEsBH4utM0zNiDBukemV5XObmrRNJ6Vv5JT7NxH
j1fOsXFZJmUqKA==
-----END PRIVATE KEY-----
