Certificate:
    Data:
        Version: 1 (0x0)
        Serial Number: 1048577 (0x100001)
    Signature Algorithm: md5WithRSAEncryption
        Issuer: O=ScrOoglE, L=Silicone Cave, ST=Holisausage, C=US
        Validity
            Not Before: Mar 17 17:34:04 2014 GMT
            Not After : Mar 17 17:34:04 2015 GMT
        Subject: C=US, ST=Holisausage, O=ScrOoglE, CN=Scroogle PC
        Subject Public Key Info:
            Public Key Algorithm: rsaEncryption
                Public-Key: (1024 bit)
                Modulus:
                    00:a4:60:d5:05:4a:35:3a:47:e0:0b:47:4d:eb:d5:
                    29:ce:22:7b:c2:1b:2a:f0:28:61:64:78:08:92:4b:
                    80:0c:5a:75:03:ee:cf:a5:80:ab:71:d1:42:3c:4e:
                    ab:ae:59:e6:40:a9:a4:f6:da:7a:0c:73:2c:fc:f3:
                    fa:49:40:a0:b0:73:0b:d2:50:5b:26:3c:68:e2:21:
                    8f:64:f6:88:ba:d7:3f:00:53:ee:8d:05:ea:8c:8d:
                    01:fc:2f:e6:4a:33:ea:fa:f7:67:aa:38:85:46:4f:
                    df:71:aa:0b:22:5f:14:48:73:ec:d6:9a:ff:8d:f7:
                    70:1f:b8:75:a9:e0:89:65:21
                Exponent: 65537 (0x10001)
    Signature Algorithm: md5WithRSAEncryption
         96:ab:cf:21:f4:53:a7:10:7a:91:41:d8:a1:f4:9b:74:e6:db:
         38:07:93:c7:81:2d:a2:a8:66:df:5c:f7:ab:12:81:87:af:8c:
         6e:86:8e:a8:39:a7:bf:19:be:50:24:63:1b:a0:ba:a5:e4:a2:
         01:3a:d1:e0:8a:3a:c0:87:2f:41:2c:31:d1:45:db:f1:ce:73:
         a8:67:52:c2:07:9f:cd:0d:ed:c1:f1:bd:8d:ed:8a:63:93:d3:
         e2:d4:02:a5:37:38:b5:49:0d:72:3a:6e:53:9a:4d:b9:6a:f8:
         9a:5e:a4:66:1a:a0:21:86:62:d4:d8:27:2c:5d:86:00:d3:3d:
         be:6f
-----BEGIN CERTIFICATE-----
MIICCzCCAXQCAxAAATANBgkqhkiG9w0BAQQFADBOMREwDwYDVQQKEwhTY3JPb2ds
RTEWMBQGA1UEBxMNU2lsaWNvbmUgQ2F2ZTEUMBIGA1UECBMLSG9saXNhdXNhZ2Ux
CzAJBgNVBAYTAlVTMB4XDTE0MDMxNzE3MzQwNFoXDTE1MDMxNzE3MzQwNFowTDEL
MAkGA1UEBhMCVVMxFDASBgNVBAgTC0hvbGlzYXVzYWdlMREwDwYDVQQKEwhTY3JP
b2dsRTEUMBIGA1UEAxMLU2Nyb29nbGUgUEMwgZ8wDQYJKoZIhvcNAQEBBQADgY0A
MIGJAoGBAKRg1QVKNTpH4AtHTevVKc4ie8IbKvAoYWR4CJJLgAxadQPuz6WAq3HR
QjxOq65Z5kCppPbaegxzLPzz+klAoLBzC9JQWyY8aOIhj2T2iLrXPwBT7o0F6oyN
Afwv5koz6vr3Z6o4hUZP33GqCyJfFEhz7Naa/433cB+4dangiWUhAgMBAAEwDQYJ
KoZIhvcNAQEEBQADgYEAlqvPIfRTpxB6kUHYofSbdObbOAeTx4Etoqhm31z3qxKB
h6+MboaOqDmnvxm+UCRjG6C6peSiATrR4Io6wIcvQSwx0UXb8c5zqGdSwgefzQ3t
wfG9je2KY5PT4tQCpTc4tUkNcjpuU5pNuWr4ml6kZhqgIYZi1NgnLF2GANM9vm8=
-----END CERTIFICATE-----
-----BEGIN PRIVATE KEY-----
MIICdgIBADANBgkqhkiG9w0BAQEFAASCAmAwggJcAgEAAoGBAKRg1QVKNTpH4AtH
TevVKc4ie8IbKvAoYWR4CJJLgAxadQPuz6WAq3HRQjxOq65Z5kCppPbaegxzLPzz
+klAoLBzC9JQWyY8aOIhj2T2iLrXPwBT7o0F6oyNAfwv5koz6vr3Z6o4hUZP33Gq
CyJfFEhz7Naa/433cB+4dangiWUhAgMBAAECgYBQLSL6J4361WAEYE0zgI+ZidxP
eyzgYvHOLXYQ1V6pp913g54onbACHg1umPjIW/UhCR37gekR9YO2BdLItAsr/XBL
BmFIp6M49vXHGpYfTZFYe7cyUusRge//FNuWxP7bn1zt44WfZ8fOhXg3Gy11ID4G
i2uin4qbV4LfsM+OoQJBAM+a43LCvYVeZf1UpdqRxdjahGCMmUd8VLlqy+kGmaiK
npV3VtzZdt18+bd6JK0OP0bF3Cqu4KOUb6P6icL2/wUCQQDKslOr3CszyFBVYTgI
6R6DJwKtaCaAOa3Ip6l0a7q6AUNMU9A1BqbEs9EKO87RhkgcEaMmgd1u6sTOGbdh
/JBtAkEAjzHyuHGCb7+Q8Y+1ZnEt2km/DSltgFVNyybSx0R6MDqM7+OE0ohc6KEP
TXK+YW92Tcaj+fztjWcRKjXhV80uUQJACQvuehQohXYiR71AD/2/k+Dw2KZ2WXC5
leQNxxlryxN1Wnm/KC600MCpysgike1pWH9dBcH0DRhDUmOJcMEh/QJABAGEYeXf
xilo8jV5DujwKt0PwRG3592k6Zz2uV2U8bjCoBQUD9oQjqMleWIWe4ST1jxDpX+w
6rulUnJTfJh12A==
-----END PRIVATE KEY-----

